target datalayout = "e-m:e-p270:32:32-p271:32:32-p272:64:64-i64:64-i128:128-f80:128-n8:16:32:64-S128"
target triple = "x86_64-pc-linux-gnu"

%struct.COMPLEX = type { double, double }
%struct.PJconsts = type { ptr, ptr, ptr, ptr, ptr, ptr, ptr, ptr, ptr, ptr, ptr, ptr, i32, ptr, ptr, ptr, ptr, ptr, ptr, ptr, ptr, double, double, double, double, double, double, double, double, double, double, double, double, double, double, double, double, double, double, double, double, double, double, i32, i32, i32, i32, i32, i32, i32, i32, i32, i32, i32, ptr, ptr, ptr, ptr, ptr, ptr, double, double, double, double, double, double, double, double, double, double, double, i32, [7 x double], i32, ptr, ptr, double, double, i32, [4 x i8], %"class.std::shared_ptr", i8, double, i8, %"class.std::__cxx11::basic_string", %"class.std::__cxx11::basic_string", %"class.std::__cxx11::basic_string", i8, %"class.std::vector", i32, %"class.std::vector.3", i32, i8, i8, i8, ptr }
%"class.std::shared_ptr" = type { %"class.std::__shared_ptr" }
%"class.std::__shared_ptr" = type { ptr, %"class.std::__shared_count" }
%"class.std::__shared_count" = type { ptr }
%"class.std::__cxx11::basic_string" = type { %"struct.std::__cxx11::basic_string<char>::_Alloc_hider", i64, %union.anon }
%"struct.std::__cxx11::basic_string<char>::_Alloc_hider" = type { ptr }
%union.anon = type { i64, [8 x i8] }
%"class.std::vector" = type { %"struct.std::_Vector_base" }
%"struct.std::_Vector_base" = type { %"struct.std::_Vector_base<osgeo::proj::operation::GridDescription, std::allocator<osgeo::proj::operation::GridDescription>>::_Vector_impl" }
%"struct.std::_Vector_base<osgeo::proj::operation::GridDescription, std::allocator<osgeo::proj::operation::GridDescription>>::_Vector_impl" = type { %"struct.std::_Vector_base<osgeo::proj::operation::GridDescription, std::allocator<osgeo::proj::operation::GridDescription>>::_Vector_impl_data" }
%"struct.std::_Vector_base<osgeo::proj::operation::GridDescription, std::allocator<osgeo::proj::operation::GridDescription>>::_Vector_impl_data" = type { ptr, ptr, ptr }
%"class.std::vector.3" = type { %"struct.std::_Vector_base.4" }
%"struct.std::_Vector_base.4" = type { %"struct.std::_Vector_base<PJCoordOperation, std::allocator<PJCoordOperation>>::_Vector_impl" }
%"struct.std::_Vector_base<PJCoordOperation, std::allocator<PJCoordOperation>>::_Vector_impl" = type { %"struct.std::_Vector_base<PJCoordOperation, std::allocator<PJCoordOperation>>::_Vector_impl_data" }
%"struct.std::_Vector_base<PJCoordOperation, std::allocator<PJCoordOperation>>::_Vector_impl_data" = type { ptr, ptr, ptr }
%"struct.(anonymous namespace)::pj_mod_ster_data" = type { ptr, double, double, i32 }
%struct.PJ_LP = type { double, double }
%struct.PJ_XY = type { double, double }

; Function Attrs: mustprogress uwtable
define internal { double, double } @_ZL18mod_ster_e_forward5PJ_LPP8PJconsts(double %0, double %1, ptr noundef %2) #0 {
  %4 = alloca %struct.PJ_XY, align 8
  %5 = alloca %struct.PJ_LP, align 8
  %6 = alloca ptr, align 8
  %7 = alloca ptr, align 8
  %8 = alloca double, align 8
  %9 = alloca double, align 8
  %10 = alloca double, align 8
  %11 = alloca double, align 8
  %12 = alloca double, align 8
  %13 = alloca double, align 8
  %14 = alloca double, align 8
  %15 = alloca %struct.COMPLEX, align 8
  %16 = alloca double, align 8
  %17 = alloca i32, align 4
  %18 = alloca %struct.COMPLEX, align 8
  %19 = alloca %struct.COMPLEX, align 8
  %20 = getelementptr inbounds nuw { double, double }, ptr %5, i32 0, i32 0
  store double %0, ptr %20, align 8
  %21 = getelementptr inbounds nuw { double, double }, ptr %5, i32 0, i32 1
  store double %1, ptr %21, align 8
  store ptr %2, ptr %6, align 8, !tbaa !3
  call void @llvm.memset.p0.i64(ptr align 8 %4, i8 0, i64 16, i1 false)
  call void @llvm.lifetime.start.p0(i64 8, ptr %7) #9
  %22 = load ptr, ptr %6, align 8, !tbaa !3
  %23 = getelementptr inbounds nuw %struct.PJconsts, ptr %22, i32 0, i32 11
  %24 = load ptr, ptr %23, align 8, !tbaa !43
  store ptr %24, ptr %7, align 8, !tbaa !41
  call void @llvm.lifetime.start.p0(i64 8, ptr %8) #9
  call void @llvm.lifetime.start.p0(i64 8, ptr %9) #9
  call void @llvm.lifetime.start.p0(i64 8, ptr %10) #9
  call void @llvm.lifetime.start.p0(i64 8, ptr %11) #9
  call void @llvm.lifetime.start.p0(i64 8, ptr %12) #9
  call void @llvm.lifetime.start.p0(i64 8, ptr %13) #9
  call void @llvm.lifetime.start.p0(i64 8, ptr %14) #9
  call void @llvm.lifetime.start.p0(i64 16, ptr %15) #9
  %25 = getelementptr inbounds nuw %struct.PJ_LP, ptr %5, i32 0, i32 0
  %26 = load double, ptr %25, align 8, !tbaa !67
  %27 = call double @sin(double noundef %26) #9, !tbaa !51
  store double %27, ptr %8, align 8, !tbaa !52
  %28 = getelementptr inbounds nuw %struct.PJ_LP, ptr %5, i32 0, i32 0
  %29 = load double, ptr %28, align 8, !tbaa !67
  %30 = call double @cos(double noundef %29) #9, !tbaa !51
  store double %30, ptr %9, align 8, !tbaa !52
  %31 = load ptr, ptr %6, align 8, !tbaa !3
  %32 = getelementptr inbounds nuw %struct.PJconsts, ptr %31, i32 0, i32 26
  %33 = load double, ptr %32, align 8, !tbaa !50
  %34 = getelementptr inbounds nuw %struct.PJ_LP, ptr %5, i32 0, i32 1
  %35 = load double, ptr %34, align 8, !tbaa !69
  %36 = call double @sin(double noundef %35) #9, !tbaa !51
  %37 = fmul double %33, %36
  store double %37, ptr %10, align 8, !tbaa !52
  %38 = getelementptr inbounds nuw %struct.PJ_LP, ptr %5, i32 0, i32 1
  %39 = load double, ptr %38, align 8, !tbaa !69
  %40 = fadd double 0x3FF921FB54442D18, %39
  %41 = fmul double %40, 5.000000e-01
  %42 = call double @tan(double noundef %41) #9, !tbaa !51
  %43 = load double, ptr %10, align 8, !tbaa !52
  %44 = fsub double 1.000000e+00, %43
  %45 = load double, ptr %10, align 8, !tbaa !52
  %46 = fadd double 1.000000e+00, %45
  %47 = fdiv double %44, %46
  %48 = load ptr, ptr %6, align 8, !tbaa !3
  %49 = getelementptr inbounds nuw %struct.PJconsts, ptr %48, i32 0, i32 26
  %50 = load double, ptr %49, align 8, !tbaa !50
  %51 = fmul double %50, 5.000000e-01
  %52 = call double @pow(double noundef %47, double noundef %51) #9, !tbaa !51
  %53 = fmul double %42, %52
  %54 = call double @atan(double noundef %53) #9, !tbaa !51
  %55 = call double @llvm.fmuladd.f64(double 2.000000e+00, double %54, double 0xBFF921FB54442D18)
  store double %55, ptr %11, align 8, !tbaa !52
  %56 = load double, ptr %11, align 8, !tbaa !52
  %57 = call double @sin(double noundef %56) #9, !tbaa !51
  store double %57, ptr %12, align 8, !tbaa !52
  %58 = load double, ptr %11, align 8, !tbaa !52
  %59 = call double @cos(double noundef %58) #9, !tbaa !51
  store double %59, ptr %13, align 8, !tbaa !52
  call void @llvm.lifetime.start.p0(i64 8, ptr %16) #9
  %60 = load ptr, ptr %7, align 8, !tbaa !41
  %61 = getelementptr inbounds nuw %"struct.(anonymous namespace)::pj_mod_ster_data", ptr %60, i32 0, i32 2
  %62 = load double, ptr %61, align 8, !tbaa !53
  %63 = load double, ptr %12, align 8, !tbaa !52
  %64 = call double @llvm.fmuladd.f64(double %62, double %63, double 1.000000e+00)
  %65 = load ptr, ptr %7, align 8, !tbaa !41
  %66 = getelementptr inbounds nuw %"struct.(anonymous namespace)::pj_mod_ster_data", ptr %65, i32 0, i32 1
  %67 = load double, ptr %66, align 8, !tbaa !54
  %68 = load double, ptr %13, align 8, !tbaa !52
  %69 = fmul double %67, %68
  %70 = load double, ptr %9, align 8, !tbaa !52
  %71 = call double @llvm.fmuladd.f64(double %69, double %70, double %64)
  store double %71, ptr %16, align 8, !tbaa !52
  %72 = load double, ptr %16, align 8, !tbaa !52
  %73 = fcmp oeq double %72, 0.000000e+00
  br i1 %73, label %74, label %77

74:                                               ; preds = %3
  %75 = load ptr, ptr %6, align 8, !tbaa !3
  %76 = call i32 @proj_errno_set(ptr noundef %75, i32 noundef 2050)
  store i32 1, ptr %17, align 4
  br label %123

77:                                               ; preds = %3
  %78 = load double, ptr %16, align 8, !tbaa !52
  %79 = fdiv double 2.000000e+00, %78
  store double %79, ptr %14, align 8, !tbaa !52
  %80 = load double, ptr %14, align 8, !tbaa !52
  %81 = load double, ptr %13, align 8, !tbaa !52
  %82 = fmul double %80, %81
  %83 = load double, ptr %8, align 8, !tbaa !52
  %84 = fmul double %82, %83
  %85 = getelementptr inbounds nuw %struct.COMPLEX, ptr %15, i32 0, i32 0
  store double %84, ptr %85, align 8, !tbaa !60
  %86 = load double, ptr %14, align 8, !tbaa !52
  %87 = load ptr, ptr %7, align 8, !tbaa !41
  %88 = getelementptr inbounds nuw %"struct.(anonymous namespace)::pj_mod_ster_data", ptr %87, i32 0, i32 1
  %89 = load double, ptr %88, align 8, !tbaa !54
  %90 = load double, ptr %12, align 8, !tbaa !52
  %91 = load ptr, ptr %7, align 8, !tbaa !41
  %92 = getelementptr inbounds nuw %"struct.(anonymous namespace)::pj_mod_ster_data", ptr %91, i32 0, i32 2
  %93 = load double, ptr %92, align 8, !tbaa !53
  %94 = load double, ptr %13, align 8, !tbaa !52
  %95 = fmul double %93, %94
  %96 = load double, ptr %9, align 8, !tbaa !52
  %97 = fmul double %95, %96
  %98 = fneg double %97
  %99 = call double @llvm.fmuladd.f64(double %89, double %90, double %98)
  %100 = fmul double %86, %99
  %101 = getelementptr inbounds nuw %struct.COMPLEX, ptr %15, i32 0, i32 1
  store double %100, ptr %101, align 8, !tbaa !63
  call void @llvm.lifetime.start.p0(i64 16, ptr %18) #9
  call void @llvm.memcpy.p0.p0.i64(ptr align 8 %19, ptr align 8 %15, i64 16, i1 false), !tbaa.struct !64
  %102 = load ptr, ptr %7, align 8, !tbaa !41
  %103 = getelementptr inbounds nuw %"struct.(anonymous namespace)::pj_mod_ster_data", ptr %102, i32 0, i32 0
  %104 = load ptr, ptr %103, align 8, !tbaa !48
  %105 = load ptr, ptr %7, align 8, !tbaa !41
  %106 = getelementptr inbounds nuw %"struct.(anonymous namespace)::pj_mod_ster_data", ptr %105, i32 0, i32 3
  %107 = load i32, ptr %106, align 8, !tbaa !44
  %108 = getelementptr inbounds nuw { double, double }, ptr %19, i32 0, i32 0
  %109 = load double, ptr %108, align 8
  %110 = getelementptr inbounds nuw { double, double }, ptr %19, i32 0, i32 1
  %111 = load double, ptr %110, align 8
  %112 = call { double, double } @_Z9pj_zpoly17COMPLEXPKS_i(double %109, double %111, ptr noundef %104, i32 noundef %107)
  %113 = getelementptr inbounds nuw { double, double }, ptr %18, i32 0, i32 0
  %114 = extractvalue { double, double } %112, 0
  store double %114, ptr %113, align 8
  %115 = getelementptr inbounds nuw { double, double }, ptr %18, i32 0, i32 1
  %116 = extractvalue { double, double } %112, 1
  store double %116, ptr %115, align 8
  call void @llvm.memcpy.p0.p0.i64(ptr align 8 %15, ptr align 8 %18, i64 16, i1 false), !tbaa.struct !64
  call void @llvm.lifetime.end.p0(i64 16, ptr %18) #9
  %117 = getelementptr inbounds nuw %struct.COMPLEX, ptr %15, i32 0, i32 0
  %118 = load double, ptr %117, align 8, !tbaa !60
  %119 = getelementptr inbounds nuw %struct.PJ_XY, ptr %4, i32 0, i32 0
  store double %118, ptr %119, align 8, !tbaa !58
  %120 = getelementptr inbounds nuw %struct.COMPLEX, ptr %15, i32 0, i32 1
  %121 = load double, ptr %120, align 8, !tbaa !63
  %122 = getelementptr inbounds nuw %struct.PJ_XY, ptr %4, i32 0, i32 1
  store double %121, ptr %122, align 8, !tbaa !62
  store i32 1, ptr %17, align 4
  br label %123

123:                                              ; preds = %77, %74
  call void @llvm.lifetime.end.p0(i64 8, ptr %16) #9
  call void @llvm.lifetime.end.p0(i64 16, ptr %15) #9
  call void @llvm.lifetime.end.p0(i64 8, ptr %14) #9
  call void @llvm.lifetime.end.p0(i64 8, ptr %13) #9
  call void @llvm.lifetime.end.p0(i64 8, ptr %12) #9
  call void @llvm.lifetime.end.p0(i64 8, ptr %11) #9
  call void @llvm.lifetime.end.p0(i64 8, ptr %10) #9
  call void @llvm.lifetime.end.p0(i64 8, ptr %9) #9
  call void @llvm.lifetime.end.p0(i64 8, ptr %8) #9
  call void @llvm.lifetime.end.p0(i64 8, ptr %7) #9
  %124 = load { double, double }, ptr %4, align 8
  ret { double, double } %124
}