; Function Attrs: mustprogress uwtable
define internal { double, double } @_ZL18mod_ster_e_forward5PJ_LPP8PJconsts(double %0, double %1, ptr noundef %2) #0 {
  %4 = getelementptr inbounds nuw i8, ptr %2, i64 88
  %5 = load ptr, ptr %4, align 8, !tbaa !3
  %6 = tail call double @sin(double noundef %0) #7, !tbaa !53
  %7 = tail call double @cos(double noundef %0) #7, !tbaa !53
  %8 = getelementptr inbounds nuw i8, ptr %2, i64 208
  %9 = load double, ptr %8, align 8, !tbaa !52
  %10 = tail call double @sin(double noundef %1) #7, !tbaa !53
  %11 = fmul double %9, %10
  %12 = fadd double %1, 0x3FF921FB54442D18
  %13 = fmul double %12, 5.000000e-01
  %14 = tail call double @tan(double noundef %13) #7, !tbaa !53
  %15 = fsub double 1.000000e+00, %11
  %16 = fadd double %11, 1.000000e+00
  %17 = fdiv double %15, %16
  %18 = fmul double %9, 5.000000e-01
  %19 = tail call double @pow(double noundef %17, double noundef %18) #7, !tbaa !53
  %20 = fmul double %14, %19
  %21 = tail call double @atan(double noundef %20) #7, !tbaa !53
  %22 = tail call double @llvm.fmuladd.f64(double %21, double 2.000000e+00, double 0xBFF921FB54442D18)
  %23 = tail call double @sin(double noundef %22) #7, !tbaa !53
  %24 = tail call double @cos(double noundef %22) #7, !tbaa !53
  %25 = getelementptr inbounds nuw i8, ptr %5, i64 16
  %26 = load double, ptr %25, align 8, !tbaa !42
  %27 = tail call double @llvm.fmuladd.f64(double %26, double %23, double 1.000000e+00)
  %28 = getelementptr inbounds nuw i8, ptr %5, i64 8
  %29 = load double, ptr %28, align 8, !tbaa !43
  %30 = fmul double %24, %29
  %31 = tail call double @llvm.fmuladd.f64(double %30, double %7, double %27)
  %32 = fcmp oeq double %31, 0.000000e+00
  br i1 %32, label %33, label %35

33:                                               ; preds = %3
  %34 = tail call i32 @proj_errno_set(ptr noundef nonnull %2, i32 noundef 2050)
  br label %50

35:                                               ; preds = %3
  %36 = fdiv double 2.000000e+00, %31
  %37 = fmul double %24, %36
  %38 = fmul double %6, %37
  %39 = fmul double %24, %26
  %40 = fneg double %7
  %41 = fmul double %39, %40
  %42 = tail call double @llvm.fmuladd.f64(double %29, double %23, double %41)
  %43 = fmul double %42, %36
  %44 = load ptr, ptr %5, align 8, !tbaa !40
  %45 = getelementptr inbounds nuw i8, ptr %5, i64 24
  %46 = load i32, ptr %45, align 8, !tbaa !36
  %47 = tail call { double, double } @_Z9pj_zpoly17COMPLEXPKS_i(double %38, double %43, ptr noundef %44, i32 noundef %46)
  %48 = extractvalue { double, double } %47, 0
  %49 = extractvalue { double, double } %47, 1
  br label %50

50:                                               ; preds = %35, %33
  %.sroa.332.0 = phi double [ 0.000000e+00, %33 ], [ %49, %35 ]
  %.sroa.031.0 = phi double [ 0.000000e+00, %33 ], [ %48, %35 ]
  %.fca.0.insert = insertvalue { double, double } poison, double %.sroa.031.0, 0
  %.fca.1.insert = insertvalue { double, double } %.fca.0.insert, double %.sroa.332.0, 1
  ret { double, double } %.fca.1.insert
}